target datalayout = "e-m:e-p270:32:32-p271:32:32-p272:64:64-i64:64-i128:128-f80:128-n8:16:32:64-S128"
target triple = "x86_64-pc-linux-gnu"

%struct.Odc_Man_t_ = type { i32, i32, i32, i32, i32, i32, ptr, ptr, ptr, ptr, i32, i32, i32, ptr, i16, i16, ptr, i32, ptr, i32, i32, ptr, ptr, ptr, i32, i32, i32, i32, i32, i32, i64, i64, i64, i64, i64, i64, i64, i64 }
%struct.Vec_Ptr_t_ = type { i32, i32, ptr }

; Function Attrs: inlinehint nounwind uwtable
define internal zeroext i16 @Odc_Not(i16 noundef zeroext %0) #5 {
  %2 = alloca i16, align 2
  store i16 %0, ptr %2, align 2, !tbaa !59
  %3 = load i16, ptr %2, align 2, !tbaa !59
  %4 = zext i16 %3 to i32
  %5 = xor i32 %4, 1
  %6 = trunc i32 %5 to i16
  ret i16 %6
}

; Function Attrs: inlinehint nounwind uwtable
define internal i32 @Odc_ObjNum(ptr noundef %0) #5 {
  %2 = alloca ptr, align 8
  store ptr %0, ptr %2, align 8, !tbaa !7
  %3 = load ptr, ptr %2, align 8, !tbaa !7
  %4 = getelementptr inbounds nuw %struct.Odc_Man_t_, ptr %3, i32 0, i32 11
  %5 = load i32, ptr %4, align 4, !tbaa !30
  ret i32 %5
}

; Function Attrs: inlinehint nounwind uwtable
define internal zeroext i16 @Odc_Or(ptr noundef %0, i16 noundef zeroext %1, i16 noundef zeroext %2) #5 {
  %4 = alloca ptr, align 8
  %5 = alloca i16, align 2
  %6 = alloca i16, align 2
  store ptr %0, ptr %4, align 8, !tbaa !7
  store i16 %1, ptr %5, align 2, !tbaa !59
  store i16 %2, ptr %6, align 2, !tbaa !59
  %7 = load ptr, ptr %4, align 8, !tbaa !7
  %8 = load i16, ptr %5, align 2, !tbaa !59
  %9 = call zeroext i16 @Odc_Not(i16 noundef zeroext %8)
  %10 = load i16, ptr %6, align 2, !tbaa !59
  %11 = call zeroext i16 @Odc_Not(i16 noundef zeroext %10)
  %12 = call zeroext i16 @Odc_And(ptr noundef %7, i16 noundef zeroext %9, i16 noundef zeroext %11)
  %13 = call zeroext i16 @Odc_Not(i16 noundef zeroext %12)
  ret i16 %13
}

; Function Attrs: inlinehint nounwind uwtable
define internal zeroext i16 @Odc_NotCond(i16 noundef zeroext %0, i32 noundef %1) #5 {
  %3 = alloca i16, align 2
  %4 = alloca i32, align 4
  store i16 %0, ptr %3, align 2, !tbaa !59
  store i32 %1, ptr %4, align 4, !tbaa !3
  %5 = load i16, ptr %3, align 2, !tbaa !59
  %6 = zext i16 %5 to i32
  %7 = load i32, ptr %4, align 4, !tbaa !3
  %8 = icmp ne i32 %7, 0
  %9 = zext i1 %8 to i32
  %10 = trunc i32 %9 to i16
  %11 = zext i16 %10 to i32
  %12 = xor i32 %6, %11
  %13 = trunc i32 %12 to i16
  ret i16 %13
}

; Function Attrs: inlinehint nounwind uwtable
define internal i32 @Odc_IsComplement(i16 noundef zeroext %0) #5 {
  %2 = alloca i16, align 2
  store i16 %0, ptr %2, align 2, !tbaa !59
  %3 = load i16, ptr %2, align 2, !tbaa !59
  %4 = zext i16 %3 to i32
  %5 = and i32 %4, 1
  ret i32 %5
}

; Function Attrs: inlinehint nounwind uwtable
define internal zeroext i16 @Odc_Regular(i16 noundef zeroext %0) #5 {
  %2 = alloca i16, align 2
  store i16 %0, ptr %2, align 2, !tbaa !59
  %3 = load i16, ptr %2, align 2, !tbaa !59
  %4 = zext i16 %3 to i32
  %5 = and i32 %4, -2
  %6 = trunc i32 %5 to i16
  ret i16 %6
}

; Function Attrs: inlinehint nounwind uwtable
define internal void @Odc_ManIncrementTravId(ptr noundef %0) #5 {
  %2 = alloca ptr, align 8
  store ptr %0, ptr %2, align 8, !tbaa !7
  %3 = load ptr, ptr %2, align 8, !tbaa !7
  %4 = getelementptr inbounds nuw %struct.Odc_Man_t_, ptr %3, i32 0, i32 15
  %5 = load i16, ptr %4, align 2, !tbaa !124
  %6 = add i16 %5, 1
  store i16 %6, ptr %4, align 2, !tbaa !124
  ret void
}

; Function Attrs: inlinehint nounwind uwtable
define internal i32 @Vec_PtrSize(ptr noundef %0) #5 {
  %2 = alloca ptr, align 8
  store ptr %0, ptr %2, align 8, !tbaa !47
  %3 = load ptr, ptr %2, align 8, !tbaa !47
  %4 = getelementptr inbounds nuw %struct.Vec_Ptr_t_, ptr %3, i32 0, i32 1
  %5 = load i32, ptr %4, align 4, !tbaa !48
  ret i32 %5
}

; Function Attrs: nounwind uwtable
define i32 @Abc_NtkDontCareQuantify(ptr noundef %0) #0 {
  %2 = alloca i32, align 4
  %3 = alloca ptr, align 8
  %4 = alloca i16, align 2
  %5 = alloca i16, align 2
  %6 = alloca i32, align 4
  %7 = alloca i32, align 4
  %8 = alloca i32, align 4
  store ptr %0, ptr %3, align 8, !tbaa !7
  call void @llvm.lifetime.start.p0(i64 2, ptr %4) #10
  call void @llvm.lifetime.start.p0(i64 2, ptr %5) #10
  call void @llvm.lifetime.start.p0(i64 4, ptr %6) #10
  call void @llvm.lifetime.start.p0(i64 4, ptr %7) #10
  %9 = load ptr, ptr %3, align 8, !tbaa !7
  %10 = getelementptr inbounds nuw %struct.Odc_Man_t_, ptr %9, i32 0, i32 5
  store i32 0, ptr %10, align 4, !tbaa !24
  store i32 0, ptr %7, align 4, !tbaa !3
  br label %11

11:                                               ; preds = %61, %1
  %12 = load i32, ptr %7, align 4, !tbaa !3
  %13 = load ptr, ptr %3, align 8, !tbaa !7
  %14 = getelementptr inbounds nuw %struct.Odc_Man_t_, ptr %13, i32 0, i32 9
  %15 = load ptr, ptr %14, align 8, !tbaa !26
  %16 = call i32 @Vec_PtrSize(ptr noundef %15)
  %17 = icmp slt i32 %12, %16
  br i1 %17, label %18, label %64

18:                                               ; preds = %11
  %19 = load ptr, ptr %3, align 8, !tbaa !7
  call void @Odc_ManIncrementTravId(ptr noundef %19)
  %20 = load ptr, ptr %3, align 8, !tbaa !7
  %21 = load ptr, ptr %3, align 8, !tbaa !7
  %22 = getelementptr inbounds nuw %struct.Odc_Man_t_, ptr %21, i32 0, i32 14
  %23 = load i16, ptr %22, align 8, !tbaa !46
  %24 = call zeroext i16 @Odc_Regular(i16 noundef zeroext %23)
  %25 = load i32, ptr %7, align 4, !tbaa !3
  %26 = shl i32 1, %25
  %27 = call i32 @Abc_NtkDontCareCofactors_rec(ptr noundef %20, i16 noundef zeroext %24, i32 noundef %26)
  store i32 %27, ptr %6, align 4, !tbaa !3
  %28 = load ptr, ptr %3, align 8, !tbaa !7
  %29 = getelementptr inbounds nuw %struct.Odc_Man_t_, ptr %28, i32 0, i32 5
  %30 = load i32, ptr %29, align 4, !tbaa !24
  %31 = icmp ne i32 %30, 0
  br i1 %31, label %32, label %33

32:                                               ; preds = %18
  br label %61

33:                                               ; preds = %18
  %34 = load i32, ptr %6, align 4, !tbaa !3
  %35 = and i32 %34, 65535
  %36 = trunc i32 %35 to i16
  %37 = load ptr, ptr %3, align 8, !tbaa !7
  %38 = getelementptr inbounds nuw %struct.Odc_Man_t_, ptr %37, i32 0, i32 14
  %39 = load i16, ptr %38, align 8, !tbaa !46
  %40 = call i32 @Odc_IsComplement(i16 noundef zeroext %39)
  %41 = call zeroext i16 @Odc_NotCond(i16 noundef zeroext %36, i32 noundef %40)
  store i16 %41, ptr %4, align 2, !tbaa !59
  %42 = load i32, ptr %6, align 4, !tbaa !3
  %43 = lshr i32 %42, 16
  %44 = trunc i32 %43 to i16
  %45 = load ptr, ptr %3, align 8, !tbaa !7
  %46 = getelementptr inbounds nuw %struct.Odc_Man_t_, ptr %45, i32 0, i32 14
  %47 = load i16, ptr %46, align 8, !tbaa !46
  %48 = call i32 @Odc_IsComplement(i16 noundef zeroext %47)
  %49 = call zeroext i16 @Odc_NotCond(i16 noundef zeroext %44, i32 noundef %48)
  store i16 %49, ptr %5, align 2, !tbaa !59
  %50 = load ptr, ptr %3, align 8, !tbaa !7
  %51 = load i16, ptr %4, align 2, !tbaa !59
  %52 = load i16, ptr %5, align 2, !tbaa !59
  %53 = call zeroext i16 @Odc_Or(ptr noundef %50, i16 noundef zeroext %51, i16 noundef zeroext %52)
  %54 = load ptr, ptr %3, align 8, !tbaa !7
  %55 = getelementptr inbounds nuw %struct.Odc_Man_t_, ptr %54, i32 0, i32 14
  store i16 %53, ptr %55, align 8, !tbaa !46
  %56 = load ptr, ptr %3, align 8, !tbaa !7
  %57 = call i32 @Odc_ObjNum(ptr noundef %56)
  %58 = icmp sgt i32 %57, 16384
  br i1 %58, label %59, label %60

59:                                               ; preds = %33
  store i32 0, ptr %2, align 4
  store i32 1, ptr %8, align 4
  br label %65

60:                                               ; preds = %33
  br label %61

61:                                               ; preds = %60, %32
  %62 = load i32, ptr %7, align 4, !tbaa !3
  %63 = add nsw i32 %62, 1
  store i32 %63, ptr %7, align 4, !tbaa !3
  br label %11, !llvm.loop !125

64:                                               ; preds = %11
  store i32 1, ptr %2, align 4
  store i32 1, ptr %8, align 4
  br label %65

65:                                               ; preds = %64, %59
  call void @llvm.lifetime.end.p0(i64 4, ptr %7) #10
  call void @llvm.lifetime.end.p0(i64 4, ptr %6) #10
  call void @llvm.lifetime.end.p0(i64 2, ptr %5) #10
  call void @llvm.lifetime.end.p0(i64 2, ptr %4) #10
  %66 = load i32, ptr %2, align 4
  ret i32 %66
}