; Function Attrs: nounwind uwtable
define range(i32 0, 2) i32 @Abc_NtkDontCareQuantify(ptr noundef initializes((20, 24)) %0) local_unnamed_addr #0 {
  %2 = getelementptr inbounds nuw i8, ptr %0, i64 20
  store i32 0, ptr %2, align 4, !tbaa !120
  %3 = getelementptr inbounds nuw i8, ptr %0, i64 48
  %4 = load ptr, ptr %3, align 8, !tbaa !26
  %5 = getelementptr i8, ptr %4, i64 4
  %.val20 = load i32, ptr %5, align 4, !tbaa !21
  %6 = icmp sgt i32 %.val20, 0
  br i1 %6, label %.lr.ph, label %._crit_edge

.lr.ph:                                           ; preds = %1
  %7 = getelementptr inbounds nuw i8, ptr %0, i64 82
  %8 = getelementptr inbounds nuw i8, ptr %0, i64 80
  %9 = getelementptr i8, ptr %0, i64 60
  br label %10

10:                                               ; preds = %.lr.ph, %31
  %.021 = phi i32 [ 0, %.lr.ph ], [ %32, %31 ]
  %11 = load i16, ptr %7, align 2, !tbaa !119
  %12 = add i16 %11, 1
  store i16 %12, ptr %7, align 2, !tbaa !119
  %13 = load i16, ptr %8, align 8, !tbaa !53
  %14 = and i16 %13, -2
  %15 = shl nuw i32 1, %.021
  %16 = tail call i32 @Abc_NtkDontCareCofactors_rec(ptr noundef nonnull %0, i16 noundef zeroext %14, i32 noundef %15)
  %17 = load i32, ptr %2, align 4, !tbaa !120
  %.not = icmp eq i32 %17, 0
  br i1 %.not, label %18, label %31

18:                                               ; preds = %10
  %19 = trunc i32 %16 to i16
  %20 = load i16, ptr %8, align 8, !tbaa !53
  %21 = and i16 %20, 1
  %22 = lshr i32 %16, 16
  %23 = trunc nuw i32 %22 to i16
  %24 = xor i16 %21, %19
  %25 = xor i16 %24, 1
  %26 = xor i16 %21, %23
  %27 = xor i16 %26, 1
  %28 = tail call fastcc zeroext i16 @Odc_And(ptr noundef nonnull %0, i16 noundef zeroext %25, i16 noundef zeroext %27)
  %29 = xor i16 %28, 1
  store i16 %29, ptr %8, align 8, !tbaa !53
  %.val19 = load i32, ptr %9, align 4, !tbaa !30
  %30 = icmp sgt i32 %.val19, 16384
  br i1 %30, label %._crit_edge, label %31

31:                                               ; preds = %18, %10
  %32 = add nuw nsw i32 %.021, 1
  %33 = load ptr, ptr %3, align 8, !tbaa !26
  %34 = getelementptr i8, ptr %33, i64 4
  %.val = load i32, ptr %34, align 4, !tbaa !21
  %35 = icmp slt i32 %32, %.val
  br i1 %35, label %10, label %._crit_edge, !llvm.loop !122

._crit_edge:                                      ; preds = %18, %31, %1
  %.018 = phi i32 [ 1, %1 ], [ 1, %31 ], [ 0, %18 ]
  ret i32 %.018
}